target datalayout = "e-m:e-p270:32:32-p271:32:32-p272:64:64-i64:64-i128:128-f80:128-n8:16:32:64-S128"
target triple = "x86_64-pc-linux-gnu"

%struct.H5FL_reg_head_t = type { i8, i32, i32, ptr, i64, ptr }
%struct.H5FL_blk_head_t = type { i8, i32, i32, i64, ptr, ptr }
%struct.H5O_loc_t = type { ptr, i64, i8 }
%struct.H5A_t = type { %struct.H5O_shared_t, %struct.H5O_loc_t, i8, %struct.H5G_name_t, ptr }
%struct.H5O_shared_t = type { i32, ptr, i32, %union.anon }
%union.anon = type { %struct.H5O_mesg_loc_t }
%struct.H5O_mesg_loc_t = type { i32, i64 }
%struct.H5G_name_t = type { ptr, ptr, i32 }
%struct.H5A_shared_t = type { i8, ptr, i32, ptr, i64, ptr, i64, ptr, i64, i32, i32 }

@H5_H5A_shared_t_reg_free_list = global %struct.H5FL_reg_head_t { i8 0, i32 0, i32 0, ptr @.str.1, i64 80, ptr null }, align 8
@H5_attr_buf_blk_free_list = global %struct.H5FL_blk_head_t { i8 0, i32 0, i32 0, i64 0, ptr @.str.2, ptr null }, align 8
@.str.3 = private unnamed_addr constant [100 x i8] c"generated/home/dtcxzyw/WorkSpace/Projects/compilers/llvm-opt-benchmark/bench/hdf5/hdf5/src/H5Aint.c\00", align 1
@H5E_ATTR_g = external global i64, align 8
@H5E_CANTRELEASE_g = external global i64, align 8
@__func__.H5A__shared_free = private unnamed_addr constant [17 x i8] c"H5A__shared_free\00", align 1
@.str.52 = private unnamed_addr constant [28 x i8] c"can't release datatype info\00", align 1
@.str.53 = private unnamed_addr constant [29 x i8] c"can't release dataspace info\00", align 1

; Function Attrs: nounwind uwtable
define i32 @H5A__shared_free(ptr noundef %0) #0 {
  %2 = alloca ptr, align 8
  %3 = alloca i32, align 4
  %4 = alloca i8, align 1
  store ptr %0, ptr %2, align 8
  store i32 0, ptr %3, align 4
  store i8 0, ptr %4, align 1
  %5 = load ptr, ptr %2, align 8
  %6 = getelementptr inbounds %struct.H5A_t, ptr %5, i32 0, i32 4
  %7 = load ptr, ptr %6, align 8
  %8 = getelementptr inbounds %struct.H5A_shared_t, ptr %7, i32 0, i32 1
  %9 = load ptr, ptr %8, align 8
  %10 = icmp ne ptr %9, null
  br i1 %10, label %11, label %22

11:                                               ; preds = %1
  %12 = load ptr, ptr %2, align 8
  %13 = getelementptr inbounds %struct.H5A_t, ptr %12, i32 0, i32 4
  %14 = load ptr, ptr %13, align 8
  %15 = getelementptr inbounds %struct.H5A_shared_t, ptr %14, i32 0, i32 1
  %16 = load ptr, ptr %15, align 8
  %17 = call ptr @H5MM_xfree(ptr noundef %16)
  %18 = load ptr, ptr %2, align 8
  %19 = getelementptr inbounds %struct.H5A_t, ptr %18, i32 0, i32 4
  %20 = load ptr, ptr %19, align 8
  %21 = getelementptr inbounds %struct.H5A_shared_t, ptr %20, i32 0, i32 1
  store ptr null, ptr %21, align 8
  br label %22

22:                                               ; preds = %11, %1
  %23 = load ptr, ptr %2, align 8
  %24 = getelementptr inbounds %struct.H5A_t, ptr %23, i32 0, i32 4
  %25 = load ptr, ptr %24, align 8
  %26 = getelementptr inbounds %struct.H5A_shared_t, ptr %25, i32 0, i32 3
  %27 = load ptr, ptr %26, align 8
  %28 = icmp ne ptr %27, null
  br i1 %28, label %29, label %55

29:                                               ; preds = %22
  %30 = load ptr, ptr %2, align 8
  %31 = getelementptr inbounds %struct.H5A_t, ptr %30, i32 0, i32 4
  %32 = load ptr, ptr %31, align 8
  %33 = getelementptr inbounds %struct.H5A_shared_t, ptr %32, i32 0, i32 3
  %34 = load ptr, ptr %33, align 8
  %35 = call i32 @H5T_close_real(ptr noundef %34)
  %36 = icmp slt i32 %35, 0
  br i1 %36, label %37, label %50

37:                                               ; preds = %29
  br label %38

38:                                               ; preds = %37
  br label %39

39:                                               ; preds = %38
  br label %40

40:                                               ; preds = %39
  %41 = load i64, ptr @H5E_ATTR_g, align 8
  %42 = load i64, ptr @H5E_CANTRELEASE_g, align 8
  %43 = call i32 (ptr, ptr, i32, i64, i64, ptr, ...) @H5E_printf_stack(ptr noundef @.str.3, ptr noundef @__func__.H5A__shared_free, i32 noundef 1208, i64 noundef %41, i64 noundef %42, ptr noundef @.str.52)
  br label %44

44:                                               ; preds = %40
  store i8 1, ptr %4, align 1
  %45 = load i8, ptr %4, align 1
  %46 = trunc i8 %45 to i1
  %47 = zext i1 %46 to i8
  store i8 %47, ptr %4, align 1
  br label %48

48:                                               ; preds = %44
  store i32 -1, ptr %3, align 4
  br label %49

49:                                               ; preds = %48
  br label %50

50:                                               ; preds = %49, %29
  %51 = load ptr, ptr %2, align 8
  %52 = getelementptr inbounds %struct.H5A_t, ptr %51, i32 0, i32 4
  %53 = load ptr, ptr %52, align 8
  %54 = getelementptr inbounds %struct.H5A_shared_t, ptr %53, i32 0, i32 3
  store ptr null, ptr %54, align 8
  br label %55

55:                                               ; preds = %50, %22
  %56 = load ptr, ptr %2, align 8
  %57 = getelementptr inbounds %struct.H5A_t, ptr %56, i32 0, i32 4
  %58 = load ptr, ptr %57, align 8
  %59 = getelementptr inbounds %struct.H5A_shared_t, ptr %58, i32 0, i32 5
  %60 = load ptr, ptr %59, align 8
  %61 = icmp ne ptr %60, null
  br i1 %61, label %62, label %88

62:                                               ; preds = %55
  %63 = load ptr, ptr %2, align 8
  %64 = getelementptr inbounds %struct.H5A_t, ptr %63, i32 0, i32 4
  %65 = load ptr, ptr %64, align 8
  %66 = getelementptr inbounds %struct.H5A_shared_t, ptr %65, i32 0, i32 5
  %67 = load ptr, ptr %66, align 8
  %68 = call i32 @H5S_close(ptr noundef %67)
  %69 = icmp slt i32 %68, 0
  br i1 %69, label %70, label %83

70:                                               ; preds = %62
  br label %71

71:                                               ; preds = %70
  br label %72

72:                                               ; preds = %71
  br label %73

73:                                               ; preds = %72
  %74 = load i64, ptr @H5E_ATTR_g, align 8
  %75 = load i64, ptr @H5E_CANTRELEASE_g, align 8
  %76 = call i32 (ptr, ptr, i32, i64, i64, ptr, ...) @H5E_printf_stack(ptr noundef @.str.3, ptr noundef @__func__.H5A__shared_free, i32 noundef 1213, i64 noundef %74, i64 noundef %75, ptr noundef @.str.53)
  br label %77

77:                                               ; preds = %73
  store i8 1, ptr %4, align 1
  %78 = load i8, ptr %4, align 1
  %79 = trunc i8 %78 to i1
  %80 = zext i1 %79 to i8
  store i8 %80, ptr %4, align 1
  br label %81

81:                                               ; preds = %77
  store i32 -1, ptr %3, align 4
  br label %82

82:                                               ; preds = %81
  br label %83

83:                                               ; preds = %82, %62
  %84 = load ptr, ptr %2, align 8
  %85 = getelementptr inbounds %struct.H5A_t, ptr %84, i32 0, i32 4
  %86 = load ptr, ptr %85, align 8
  %87 = getelementptr inbounds %struct.H5A_shared_t, ptr %86, i32 0, i32 5
  store ptr null, ptr %87, align 8
  br label %88

88:                                               ; preds = %83, %55
  %89 = load ptr, ptr %2, align 8
  %90 = getelementptr inbounds %struct.H5A_t, ptr %89, i32 0, i32 4
  %91 = load ptr, ptr %90, align 8
  %92 = getelementptr inbounds %struct.H5A_shared_t, ptr %91, i32 0, i32 7
  %93 = load ptr, ptr %92, align 8
  %94 = icmp ne ptr %93, null
  br i1 %94, label %95, label %106

95:                                               ; preds = %88
  %96 = load ptr, ptr %2, align 8
  %97 = getelementptr inbounds %struct.H5A_t, ptr %96, i32 0, i32 4
  %98 = load ptr, ptr %97, align 8
  %99 = getelementptr inbounds %struct.H5A_shared_t, ptr %98, i32 0, i32 7
  %100 = load ptr, ptr %99, align 8
  %101 = call ptr @H5FL_blk_free(ptr noundef @H5_attr_buf_blk_free_list, ptr noundef %100)
  %102 = load ptr, ptr %2, align 8
  %103 = getelementptr inbounds %struct.H5A_t, ptr %102, i32 0, i32 4
  %104 = load ptr, ptr %103, align 8
  %105 = getelementptr inbounds %struct.H5A_shared_t, ptr %104, i32 0, i32 7
  store ptr %101, ptr %105, align 8
  br label %106

106:                                              ; preds = %95, %88
  %107 = load ptr, ptr %2, align 8
  %108 = getelementptr inbounds %struct.H5A_t, ptr %107, i32 0, i32 4
  %109 = load ptr, ptr %108, align 8
  %110 = call ptr @H5FL_reg_free(ptr noundef @H5_H5A_shared_t_reg_free_list, ptr noundef %109)
  %111 = load ptr, ptr %2, align 8
  %112 = getelementptr inbounds %struct.H5A_t, ptr %111, i32 0, i32 4
  store ptr %110, ptr %112, align 8
  %113 = load i32, ptr %3, align 4
  ret i32 %113
}