; Function Attrs: nounwind uwtable
define range(i32 -1, 1) i32 @H5A__shared_free(ptr nocapture noundef %0) local_unnamed_addr #0 {
  %2 = getelementptr inbounds i8, ptr %0, i64 96
  %3 = load ptr, ptr %2, align 8
  %4 = getelementptr inbounds i8, ptr %3, i64 8
  %5 = load ptr, ptr %4, align 8
  %.not = icmp eq ptr %5, null
  br i1 %.not, label %10, label %6

6:                                                ; preds = %1
  %7 = tail call ptr @H5MM_xfree(ptr noundef nonnull %5) #13
  %8 = load ptr, ptr %2, align 8
  %9 = getelementptr inbounds i8, ptr %8, i64 8
  store ptr null, ptr %9, align 8
  %.pre = load ptr, ptr %2, align 8
  br label %10

10:                                               ; preds = %6, %1
  %11 = phi ptr [ %.pre, %6 ], [ %3, %1 ]
  %12 = getelementptr inbounds i8, ptr %11, i64 24
  %13 = load ptr, ptr %12, align 8
  %.not20 = icmp eq ptr %13, null
  br i1 %.not20, label %24, label %14

14:                                               ; preds = %10
  %15 = tail call i32 @H5T_close_real(ptr noundef nonnull %13) #13
  %16 = icmp slt i32 %15, 0
  br i1 %16, label %17, label %21

17:                                               ; preds = %14
  %18 = load i64, ptr @H5E_ATTR_g, align 8
  %19 = load i64, ptr @H5E_CANTRELEASE_g, align 8
  %20 = tail call i32 (ptr, ptr, i32, i64, i64, ptr, ...) @H5E_printf_stack(ptr noundef nonnull @.str.3, ptr noundef nonnull @__func__.H5A__shared_free, i32 noundef 1208, i64 noundef %18, i64 noundef %19, ptr noundef nonnull @.str.52) #13
  br label %21

21:                                               ; preds = %17, %14
  %.0 = phi i32 [ -1, %17 ], [ 0, %14 ]
  %22 = load ptr, ptr %2, align 8
  %23 = getelementptr inbounds i8, ptr %22, i64 24
  store ptr null, ptr %23, align 8
  %.pre23 = load ptr, ptr %2, align 8
  br label %24

24:                                               ; preds = %21, %10
  %25 = phi ptr [ %.pre23, %21 ], [ %11, %10 ]
  %.1 = phi i32 [ %.0, %21 ], [ 0, %10 ]
  %26 = getelementptr inbounds i8, ptr %25, i64 40
  %27 = load ptr, ptr %26, align 8
  %.not21 = icmp eq ptr %27, null
  br i1 %.not21, label %38, label %28

28:                                               ; preds = %24
  %29 = tail call i32 @H5S_close(ptr noundef nonnull %27) #13
  %30 = icmp slt i32 %29, 0
  br i1 %30, label %31, label %35

31:                                               ; preds = %28
  %32 = load i64, ptr @H5E_ATTR_g, align 8
  %33 = load i64, ptr @H5E_CANTRELEASE_g, align 8
  %34 = tail call i32 (ptr, ptr, i32, i64, i64, ptr, ...) @H5E_printf_stack(ptr noundef nonnull @.str.3, ptr noundef nonnull @__func__.H5A__shared_free, i32 noundef 1213, i64 noundef %32, i64 noundef %33, ptr noundef nonnull @.str.53) #13
  br label %35

35:                                               ; preds = %31, %28
  %.2 = phi i32 [ -1, %31 ], [ %.1, %28 ]
  %36 = load ptr, ptr %2, align 8
  %37 = getelementptr inbounds i8, ptr %36, i64 40
  store ptr null, ptr %37, align 8
  %.pre24 = load ptr, ptr %2, align 8
  br label %38

38:                                               ; preds = %35, %24
  %39 = phi ptr [ %.pre24, %35 ], [ %25, %24 ]
  %.3 = phi i32 [ %.2, %35 ], [ %.1, %24 ]
  %40 = getelementptr inbounds i8, ptr %39, i64 56
  %41 = load ptr, ptr %40, align 8
  %.not22 = icmp eq ptr %41, null
  br i1 %.not22, label %46, label %42

42:                                               ; preds = %38
  %43 = tail call ptr @H5FL_blk_free(ptr noundef nonnull @H5_attr_buf_blk_free_list, ptr noundef nonnull %41) #13
  %44 = load ptr, ptr %2, align 8
  %45 = getelementptr inbounds i8, ptr %44, i64 56
  store ptr %43, ptr %45, align 8
  %.pre25 = load ptr, ptr %2, align 8
  br label %46

46:                                               ; preds = %42, %38
  %47 = phi ptr [ %.pre25, %42 ], [ %39, %38 ]
  %48 = tail call ptr @H5FL_reg_free(ptr noundef nonnull @H5_H5A_shared_t_reg_free_list, ptr noundef %47) #13
  store ptr %48, ptr %2, align 8
  ret i32 %.3
}